; Function Attrs: mustprogress uwtable
define hidden noundef zeroext i1 @_ZNK3sat10simplifier12abce_enabledEv(ptr nocapture noundef nonnull readonly align 8 dereferenceable(288) %this) local_unnamed_addr #3 align 2 {
entry:
  %m_incremental_mode.i = getelementptr inbounds i8, ptr %this, i64 136
  %0 = load i8, ptr %m_incremental_mode.i, align 8
  %1 = and i8 %0, 1
  %tobool.not.i = icmp eq i8 %1, 0
  br i1 %tobool.not.i, label %land.lhs.true.i, label %_ZNK3sat10simplifier16bce_enabled_baseEv.exit

land.lhs.true.i:                                  ; preds = %entry
  %2 = load ptr, ptr %this, align 8
  %call.i = tail call noundef zeroext i1 @_ZNK3sat6solver20tracking_assumptionsEv(ptr noundef nonnull align 8 dereferenceable(4408) %2)
  br i1 %call.i, label %_ZNK3sat10simplifier16bce_enabled_baseEv.exit, label %land.lhs.true2.i

land.lhs.true2.i:                                 ; preds = %land.lhs.true.i
  %m_learned_in_use_lists.i = getelementptr inbounds i8, ptr %this, i64 236
  %3 = load i8, ptr %m_learned_in_use_lists.i, align 4
  %4 = and i8 %3, 1
  %tobool3.not.i = icmp eq i8 %4, 0
  br i1 %tobool3.not.i, label %land.lhs.true4.i, label %_ZNK3sat10simplifier16bce_enabled_baseEv.exit

land.lhs.true4.i:                                 ; preds = %land.lhs.true2.i
  %m_num_calls.i = getelementptr inbounds i8, ptr %this, i64 8
  %5 = load i32, ptr %m_num_calls.i, align 8
  %m_bce_delay.i = getelementptr inbounds i8, ptr %this, i64 116
  %6 = load i32, ptr %m_bce_delay.i, align 4
  %cmp.not.i = icmp ult i32 %5, %6
  br i1 %cmp.not.i, label %_ZNK3sat10simplifier16bce_enabled_baseEv.exit, label %land.rhs.i

land.rhs.i:                                       ; preds = %land.lhs.true4.i
  %7 = load ptr, ptr %this, align 8
  %m_num_threads.i.i = getelementptr inbounds i8, ptr %7, i64 168
  %8 = load i32, ptr %m_num_threads.i.i, align 8
  %cmp.i.i = icmp eq i32 %8, 1
  br label %_ZNK3sat10simplifier16bce_enabled_baseEv.exit

_ZNK3sat10simplifier16bce_enabled_baseEv.exit:    ; preds = %entry, %land.lhs.true.i, %land.lhs.true2.i, %land.lhs.true4.i, %land.rhs.i
  %9 = phi i1 [ false, %land.lhs.true4.i ], [ false, %land.lhs.true2.i ], [ false, %land.lhs.true.i ], [ false, %entry ], [ %cmp.i.i, %land.rhs.i ]
  %m_abce = getelementptr inbounds i8, ptr %this, i64 112
  %10 = load i8, ptr %m_abce, align 8
  %11 = and i8 %10, 1
  %tobool = icmp ne i8 %11, 0
  %12 = select i1 %9, i1 %tobool, i1 false
  ret i1 %12
}